target datalayout = "e-m:e-p270:32:32-p271:32:32-p272:64:64-i64:64-i128:128-f80:128-n8:16:32:64-S128"
target triple = "x86_64-pc-linux-gnu"

%struct.Abc_TtStore_t_ = type { i32, i32, i32, ptr }

; Function Attrs: nounwind uwtable
define void @Abc_TtStoreFree(ptr noundef %0, i32 noundef %1) #0 {
  %3 = alloca ptr, align 8
  %4 = alloca i32, align 4
  store ptr %0, ptr %3, align 8, !tbaa !20
  store i32 %1, ptr %4, align 4, !tbaa !10
  %5 = load i32, ptr %4, align 4, !tbaa !10
  %6 = icmp sge i32 %5, 0
  br i1 %6, label %7, label %26

7:                                                ; preds = %2
  %8 = load ptr, ptr %3, align 8, !tbaa !20
  %9 = getelementptr inbounds nuw %struct.Abc_TtStore_t_, ptr %8, i32 0, i32 3
  %10 = load ptr, ptr %9, align 8, !tbaa !27
  %11 = getelementptr inbounds ptr, ptr %10, i64 0
  %12 = load ptr, ptr %11, align 8, !tbaa !3
  %13 = icmp ne ptr %12, null
  br i1 %13, label %14, label %24

14:                                               ; preds = %7
  %15 = load ptr, ptr %3, align 8, !tbaa !20
  %16 = getelementptr inbounds nuw %struct.Abc_TtStore_t_, ptr %15, i32 0, i32 3
  %17 = load ptr, ptr %16, align 8, !tbaa !27
  %18 = getelementptr inbounds ptr, ptr %17, i64 0
  %19 = load ptr, ptr %18, align 8, !tbaa !3
  call void @free(ptr noundef %19) #12
  %20 = load ptr, ptr %3, align 8, !tbaa !20
  %21 = getelementptr inbounds nuw %struct.Abc_TtStore_t_, ptr %20, i32 0, i32 3
  %22 = load ptr, ptr %21, align 8, !tbaa !27
  %23 = getelementptr inbounds ptr, ptr %22, i64 0
  store ptr null, ptr %23, align 8, !tbaa !3
  br label %25

24:                                               ; preds = %7
  br label %25

25:                                               ; preds = %24, %14
  br label %26

26:                                               ; preds = %25, %2
  %27 = load ptr, ptr %3, align 8, !tbaa !20
  %28 = getelementptr inbounds nuw %struct.Abc_TtStore_t_, ptr %27, i32 0, i32 3
  %29 = load ptr, ptr %28, align 8, !tbaa !27
  %30 = icmp ne ptr %29, null
  br i1 %30, label %31, label %37

31:                                               ; preds = %26
  %32 = load ptr, ptr %3, align 8, !tbaa !20
  %33 = getelementptr inbounds nuw %struct.Abc_TtStore_t_, ptr %32, i32 0, i32 3
  %34 = load ptr, ptr %33, align 8, !tbaa !27
  call void @free(ptr noundef %34) #12
  %35 = load ptr, ptr %3, align 8, !tbaa !20
  %36 = getelementptr inbounds nuw %struct.Abc_TtStore_t_, ptr %35, i32 0, i32 3
  store ptr null, ptr %36, align 8, !tbaa !27
  br label %38

37:                                               ; preds = %26
  br label %38

38:                                               ; preds = %37, %31
  %39 = load ptr, ptr %3, align 8, !tbaa !20
  %40 = icmp ne ptr %39, null
  br i1 %40, label %41, label %43

41:                                               ; preds = %38
  %42 = load ptr, ptr %3, align 8, !tbaa !20
  call void @free(ptr noundef %42) #12
  store ptr null, ptr %3, align 8, !tbaa !20
  br label %44

43:                                               ; preds = %38
  br label %44

44:                                               ; preds = %43, %41
  ret void
}

; Function Attrs: nounwind uwtable
define void @Abc_TruthDecTest(ptr noundef %0, i32 noundef %1, i32 noundef %2, i32 noundef %3) #0 {
  %5 = alloca ptr, align 8
  %6 = alloca i32, align 4
  %7 = alloca i32, align 4
  %8 = alloca i32, align 4
  %9 = alloca ptr, align 8
  %10 = alloca i32, align 4
  store ptr %0, ptr %5, align 8, !tbaa !8
  store i32 %1, ptr %6, align 4, !tbaa !10
  store i32 %2, ptr %7, align 4, !tbaa !10
  store i32 %3, ptr %8, align 4, !tbaa !10
  call void @llvm.lifetime.start.p0(i64 8, ptr %9) #12
  %11 = load ptr, ptr %5, align 8, !tbaa !8
  %12 = load i32, ptr %7, align 4, !tbaa !10
  %13 = call ptr @Abc_TtStoreLoad(ptr noundef %11, i32 noundef %12)
  store ptr %13, ptr %9, align 8, !tbaa !20
  %14 = load ptr, ptr %9, align 8, !tbaa !20
  %15 = icmp eq ptr %14, null
  br i1 %15, label %16, label %17

16:                                               ; preds = %4
  store i32 1, ptr %10, align 4
  br label %23

17:                                               ; preds = %4
  %18 = load ptr, ptr %9, align 8, !tbaa !20
  %19 = load i32, ptr %6, align 4, !tbaa !10
  %20 = load i32, ptr %8, align 4, !tbaa !10
  call void @Abc_TruthDecPerform(ptr noundef %18, i32 noundef %19, i32 noundef %20)
  %21 = load ptr, ptr %9, align 8, !tbaa !20
  %22 = load i32, ptr %7, align 4, !tbaa !10
  call void @Abc_TtStoreFree(ptr noundef %21, i32 noundef %22)
  store i32 0, ptr %10, align 4
  br label %23

23:                                               ; preds = %17, %16
  call void @llvm.lifetime.end.p0(i64 8, ptr %9) #12
  %24 = load i32, ptr %10, align 4
  switch i32 %24, label %26 [
    i32 0, label %25
    i32 1, label %25
  ]

25:                                               ; preds = %23, %23
  ret void

26:                                               ; preds = %23
  unreachable
}