; Function Attrs: nounwind uwtable
define void @Abc_TruthDecTest(ptr noundef %0, i32 noundef %1, i32 noundef %2, i32 noundef %3) local_unnamed_addr #9 {
  %5 = tail call ptr @Abc_TtStoreLoad(ptr noundef %0, i32 noundef %2)
  %6 = icmp eq ptr %5, null
  br i1 %6, label %15, label %7

7:                                                ; preds = %4
  tail call void @Abc_TruthDecPerform(ptr noundef nonnull %5, i32 noundef %1, i32 noundef %3)
  %8 = icmp sgt i32 %2, -1
  %9 = getelementptr inbounds nuw i8, ptr %5, i64 16
  %10 = load ptr, ptr %9, align 8, !tbaa !18
  br i1 %8, label %11, label %14

11:                                               ; preds = %7
  %12 = load ptr, ptr %10, align 8, !tbaa !19
  %.not.i = icmp eq ptr %12, null
  br i1 %.not.i, label %.thread.i, label %13

13:                                               ; preds = %11
  tail call void @free(ptr noundef nonnull %12) #21
  br label %.thread.i

14:                                               ; preds = %7
  %.not10.i = icmp eq ptr %10, null
  br i1 %.not10.i, label %Abc_TtStoreFree.exit, label %.thread.i

.thread.i:                                        ; preds = %14, %13, %11
  tail call void @free(ptr noundef nonnull %10) #21
  br label %Abc_TtStoreFree.exit

Abc_TtStoreFree.exit:                             ; preds = %14, %.thread.i
  tail call void @free(ptr noundef nonnull %5) #21
  br label %15

15:                                               ; preds = %4, %Abc_TtStoreFree.exit
  ret void
}